target datalayout = "e-m:e-p270:32:32-p271:32:32-p272:64:64-i64:64-i128:128-f80:128-n8:16:32:64-S128"
target triple = "x86_64-pc-linux-gnu"

@libctx = internal global ptr null, align 8
@.str.14 = private unnamed_addr constant [30 x i8] c"../openssl/test/quicapitest.c\00", align 1
@cert = internal global ptr null, align 8
@privkey = internal global ptr null, align 8
@.str.62 = private unnamed_addr constant [5 x i8] c"cctx\00", align 1
@.str.67 = private unnamed_addr constant [49 x i8] c"qtest_create_quic_connection(qtserv, clientquic)\00", align 1
@.str.70 = private unnamed_addr constant [2 x i8] c"0\00", align 1
@.str.134 = private unnamed_addr constant [117 x i8] c"qtest_create_quic_objects(libctx, cctx, NULL, cert, privkey, QTEST_FLAG_FAKE_TIME, &qtserv, &clientquic, NULL, NULL)\00", align 1
@.str.266 = private unnamed_addr constant [29 x i8] c"SSL_get_shutdown(clientquic)\00", align 1
@.str.267 = private unnamed_addr constant [25 x i8] c"SSL_shutdown(clientquic)\00", align 1
@.str.268 = private unnamed_addr constant [18 x i8] c"SSL_SENT_SHUTDOWN\00", align 1
@.str.269 = private unnamed_addr constant [42 x i8] c"SSL_SENT_SHUTDOWN | SSL_RECEIVED_SHUTDOWN\00", align 1

; Function Attrs: nounwind uwtable
define internal i32 @test_get_shutdown() #0 {
  %1 = alloca ptr, align 8
  %2 = alloca ptr, align 8
  %3 = alloca ptr, align 8
  %4 = alloca i32, align 4
  call void @llvm.lifetime.start.p0(i64 8, ptr %1) #8
  %5 = load ptr, ptr @libctx, align 8, !tbaa !4
  %6 = call ptr @OSSL_QUIC_client_method()
  %7 = call ptr @SSL_CTX_new_ex(ptr noundef %5, ptr noundef null, ptr noundef %6)
  store ptr %7, ptr %1, align 8, !tbaa !15
  call void @llvm.lifetime.start.p0(i64 8, ptr %2) #8
  store ptr null, ptr %2, align 8, !tbaa !17
  call void @llvm.lifetime.start.p0(i64 8, ptr %3) #8
  store ptr null, ptr %3, align 8, !tbaa !19
  call void @llvm.lifetime.start.p0(i64 4, ptr %4) #8
  store i32 0, ptr %4, align 4, !tbaa !13
  %8 = load ptr, ptr %1, align 8, !tbaa !15
  %9 = call i32 @test_ptr(ptr noundef @.str.14, i32 noundef 1522, ptr noundef @.str.62, ptr noundef %8)
  %10 = icmp ne i32 %9, 0
  br i1 %10, label %11, label %29

11:                                               ; preds = %0
  %12 = load ptr, ptr @libctx, align 8, !tbaa !4
  %13 = load ptr, ptr %1, align 8, !tbaa !15
  %14 = load ptr, ptr @cert, align 8, !tbaa !11
  %15 = load ptr, ptr @privkey, align 8, !tbaa !11
  %16 = call i32 @qtest_create_quic_objects(ptr noundef %12, ptr noundef %13, ptr noundef null, ptr noundef %14, ptr noundef %15, i32 noundef 2, ptr noundef %3, ptr noundef %2, ptr noundef null, ptr noundef null)
  %17 = icmp ne i32 %16, 0
  %18 = zext i1 %17 to i32
  %19 = call i32 @test_true(ptr noundef @.str.14, i32 noundef 1527, ptr noundef @.str.134, i32 noundef %18)
  %20 = icmp ne i32 %19, 0
  br i1 %20, label %21, label %29

21:                                               ; preds = %11
  %22 = load ptr, ptr %3, align 8, !tbaa !19
  %23 = load ptr, ptr %2, align 8, !tbaa !17
  %24 = call i32 @qtest_create_quic_connection(ptr noundef %22, ptr noundef %23)
  %25 = icmp ne i32 %24, 0
  %26 = zext i1 %25 to i32
  %27 = call i32 @test_true(ptr noundef @.str.14, i32 noundef 1528, ptr noundef @.str.67, i32 noundef %26)
  %28 = icmp ne i32 %27, 0
  br i1 %28, label %30, label %29

29:                                               ; preds = %21, %11, %0
  br label %63

30:                                               ; preds = %21
  %31 = load ptr, ptr %2, align 8, !tbaa !17
  %32 = call i32 @SSL_get_shutdown(ptr noundef %31)
  %33 = call i32 @test_int_eq(ptr noundef @.str.14, i32 noundef 1531, ptr noundef @.str.266, ptr noundef @.str.70, i32 noundef %32, i32 noundef 0)
  %34 = icmp ne i32 %33, 0
  br i1 %34, label %36, label %35

35:                                               ; preds = %30
  br label %63

36:                                               ; preds = %30
  %37 = load ptr, ptr %2, align 8, !tbaa !17
  %38 = call i32 @SSL_shutdown(ptr noundef %37)
  %39 = call i32 @test_int_eq(ptr noundef @.str.14, i32 noundef 1534, ptr noundef @.str.267, ptr noundef @.str.70, i32 noundef %38, i32 noundef 0)
  %40 = icmp ne i32 %39, 0
  br i1 %40, label %42, label %41

41:                                               ; preds = %36
  br label %63

42:                                               ; preds = %36
  %43 = load ptr, ptr %2, align 8, !tbaa !17
  %44 = call i32 @SSL_get_shutdown(ptr noundef %43)
  %45 = call i32 @test_int_eq(ptr noundef @.str.14, i32 noundef 1537, ptr noundef @.str.266, ptr noundef @.str.268, i32 noundef %44, i32 noundef 1)
  %46 = icmp ne i32 %45, 0
  br i1 %46, label %48, label %47

47:                                               ; preds = %42
  br label %63

48:                                               ; preds = %42
  br label %49

49:                                               ; preds = %52, %48
  %50 = load ptr, ptr %3, align 8, !tbaa !19
  %51 = call i32 @ossl_quic_tserver_tick(ptr noundef %50)
  call void @qtest_add_time(i64 noundef 100)
  br label %52

52:                                               ; preds = %49
  %53 = load ptr, ptr %2, align 8, !tbaa !17
  %54 = call i32 @SSL_shutdown(ptr noundef %53)
  %55 = icmp eq i32 %54, 0
  br i1 %55, label %49, label %56, !llvm.loop !51

56:                                               ; preds = %52
  %57 = load ptr, ptr %2, align 8, !tbaa !17
  %58 = call i32 @SSL_get_shutdown(ptr noundef %57)
  %59 = call i32 @test_int_eq(ptr noundef @.str.14, i32 noundef 1546, ptr noundef @.str.266, ptr noundef @.str.269, i32 noundef %58, i32 noundef 3)
  %60 = icmp ne i32 %59, 0
  br i1 %60, label %62, label %61

61:                                               ; preds = %56
  br label %63

62:                                               ; preds = %56
  store i32 1, ptr %4, align 4, !tbaa !13
  br label %63

63:                                               ; preds = %62, %61, %47, %41, %35, %29
  %64 = load ptr, ptr %3, align 8, !tbaa !19
  call void @ossl_quic_tserver_free(ptr noundef %64)
  %65 = load ptr, ptr %2, align 8, !tbaa !17
  call void @SSL_free(ptr noundef %65)
  %66 = load ptr, ptr %1, align 8, !tbaa !15
  call void @SSL_CTX_free(ptr noundef %66)
  %67 = load i32, ptr %4, align 4, !tbaa !13
  call void @llvm.lifetime.end.p0(i64 4, ptr %4) #8
  call void @llvm.lifetime.end.p0(i64 8, ptr %3) #8
  call void @llvm.lifetime.end.p0(i64 8, ptr %2) #8
  call void @llvm.lifetime.end.p0(i64 8, ptr %1) #8
  ret i32 %67
}