; Function Attrs: nounwind uwtable
define internal range(i32 0, 2) i32 @test_get_shutdown() #1 {
  %1 = alloca ptr, align 8
  %2 = alloca ptr, align 8
  %3 = load ptr, ptr @libctx, align 8, !tbaa !4
  %4 = tail call ptr @OSSL_QUIC_client_method() #10
  %5 = tail call ptr @SSL_CTX_new_ex(ptr noundef %3, ptr noundef null, ptr noundef %4) #10
  call void @llvm.lifetime.start.p0(i64 8, ptr nonnull %1) #10
  store ptr null, ptr %1, align 8, !tbaa !13
  call void @llvm.lifetime.start.p0(i64 8, ptr nonnull %2) #10
  store ptr null, ptr %2, align 8, !tbaa !15
  %6 = tail call i32 @test_ptr(ptr noundef nonnull @.str.14, i32 noundef 1522, ptr noundef nonnull @.str.62, ptr noundef %5) #10
  %.not = icmp eq i32 %6, 0
  br i1 %.not, label %43, label %7

7:                                                ; preds = %0
  %8 = load ptr, ptr @libctx, align 8, !tbaa !4
  %9 = load ptr, ptr @cert, align 8, !tbaa !11
  %10 = load ptr, ptr @privkey, align 8, !tbaa !11
  %11 = call i32 @qtest_create_quic_objects(ptr noundef %8, ptr noundef %5, ptr noundef null, ptr noundef %9, ptr noundef %10, i32 noundef 2, ptr noundef nonnull %2, ptr noundef nonnull %1, ptr noundef null, ptr noundef null) #10
  %12 = icmp ne i32 %11, 0
  %13 = zext i1 %12 to i32
  %14 = call i32 @test_true(ptr noundef nonnull @.str.14, i32 noundef 1527, ptr noundef nonnull @.str.134, i32 noundef %13) #10
  %.not3 = icmp eq i32 %14, 0
  br i1 %.not3, label %43, label %15

15:                                               ; preds = %7
  %16 = load ptr, ptr %2, align 8, !tbaa !15
  %17 = load ptr, ptr %1, align 8, !tbaa !13
  %18 = call i32 @qtest_create_quic_connection(ptr noundef %16, ptr noundef %17) #10
  %19 = icmp ne i32 %18, 0
  %20 = zext i1 %19 to i32
  %21 = call i32 @test_true(ptr noundef nonnull @.str.14, i32 noundef 1528, ptr noundef nonnull @.str.67, i32 noundef %20) #10
  %.not4 = icmp eq i32 %21, 0
  br i1 %.not4, label %43, label %22

22:                                               ; preds = %15
  %23 = load ptr, ptr %1, align 8, !tbaa !13
  %24 = call i32 @SSL_get_shutdown(ptr noundef %23) #10
  %25 = call i32 @test_int_eq(ptr noundef nonnull @.str.14, i32 noundef 1531, ptr noundef nonnull @.str.266, ptr noundef nonnull @.str.70, i32 noundef %24, i32 noundef 0) #10
  %.not5 = icmp eq i32 %25, 0
  br i1 %.not5, label %43, label %26

26:                                               ; preds = %22
  %27 = load ptr, ptr %1, align 8, !tbaa !13
  %28 = call i32 @SSL_shutdown(ptr noundef %27) #10
  %29 = call i32 @test_int_eq(ptr noundef nonnull @.str.14, i32 noundef 1534, ptr noundef nonnull @.str.267, ptr noundef nonnull @.str.70, i32 noundef %28, i32 noundef 0) #10
  %.not6 = icmp eq i32 %29, 0
  br i1 %.not6, label %43, label %30

30:                                               ; preds = %26
  %31 = load ptr, ptr %1, align 8, !tbaa !13
  %32 = call i32 @SSL_get_shutdown(ptr noundef %31) #10
  %33 = call i32 @test_int_eq(ptr noundef nonnull @.str.14, i32 noundef 1537, ptr noundef nonnull @.str.266, ptr noundef nonnull @.str.268, i32 noundef %32, i32 noundef 1) #10
  %.not7 = icmp eq i32 %33, 0
  br i1 %.not7, label %43, label %.preheader

.preheader:                                       ; preds = %30, %.preheader
  %34 = load ptr, ptr %2, align 8, !tbaa !15
  %35 = call i32 @ossl_quic_tserver_tick(ptr noundef %34) #10
  call void @qtest_add_time(i64 noundef 100) #10
  %36 = load ptr, ptr %1, align 8, !tbaa !13
  %37 = call i32 @SSL_shutdown(ptr noundef %36) #10
  %38 = icmp eq i32 %37, 0
  br i1 %38, label %.preheader, label %39, !llvm.loop !50

39:                                               ; preds = %.preheader
  %40 = load ptr, ptr %1, align 8, !tbaa !13
  %41 = call i32 @SSL_get_shutdown(ptr noundef %40) #10
  %42 = call i32 @test_int_eq(ptr noundef nonnull @.str.14, i32 noundef 1546, ptr noundef nonnull @.str.266, ptr noundef nonnull @.str.269, i32 noundef %41, i32 noundef 3) #10
  %.not8 = icmp ne i32 %42, 0
  %spec.select = zext i1 %.not8 to i32
  br label %43

43:                                               ; preds = %39, %30, %26, %22, %0, %7, %15
  %.0 = phi i32 [ 0, %30 ], [ 0, %26 ], [ 0, %22 ], [ 0, %15 ], [ 0, %7 ], [ 0, %0 ], [ %spec.select, %39 ]
  %44 = load ptr, ptr %2, align 8, !tbaa !15
  call void @ossl_quic_tserver_free(ptr noundef %44) #10
  %45 = load ptr, ptr %1, align 8, !tbaa !13
  call void @SSL_free(ptr noundef %45) #10
  call void @SSL_CTX_free(ptr noundef %5) #10
  call void @llvm.lifetime.end.p0(i64 8, ptr nonnull %2) #10
  call void @llvm.lifetime.end.p0(i64 8, ptr nonnull %1) #10
  ret i32 %.0
}